(lp0
I01
a(lp1
(I0
I0
tp2
a(I1
I0
tp3
a(I2
I0
tp4
a(I3
I0
tp5
a(I4
I0
tp6
a(I0
I1
tp7
a(I1
I1
tp8
a(I2
I1
tp9
a(I3
I1
tp10
a(I0
I2
tp11
a(I1
I2
tp12
a(I2
I2
tp13
a(I0
I3
tp14
a(I1
I3
tp15
a(I2
I3
tp16
a(I0
I4
tp17
a(I1
I4
tp18
aa(lp19
(I0
I0
tp20
a(I1
I0
tp21
a(I2
I0
tp22
a(I3
I0
tp23
a(I4
I0
tp24
a(I0
I1
tp25
a(I1
I1
tp26
a(I2
I1
tp27
a(I3
I1
tp28
a(I0
I2
tp29
a(I1
I2
tp30
a(I2
I2
tp31
a(I0
I3
tp32
a(I1
I3
tp33
a(I2
I3
tp34
a(I0
I4
tp35
a(I1
I4
tp36
aa(dp37
I0
(lp38
g3
ag4
ag5
ag6
asI1
(lp39
g7
ag8
ag9
asI2
(lp40
g11
ag12
ag13
asI3
(lp41
g15
asI4
(lp42
g17
ag18
asa(dp43
I1
(lp44
g28
asI2
(lp45
g29
ag30
ag31
asI3
(lp46
g32
ag33
ag34
asI4
(lp47
g35
ag36
asa(lp48
(I0
I0
tp49
a(I6
I0
tp50
a(I1
I0
tp51
a(I2
I0
tp52
a(I3
I0
tp53
a(I4
I0
tp54
a(I0
I1
tp55
a(I7
I3
tp56
a(I1
I1
tp57
a(I2
I1
tp58
aa(lp59
(I3
I1
tp60
a(I5
I1
tp61
a(I0
I0
tp62
a(I0
I3
tp63
a(I2
I3
tp64
a(I3
I3
tp65
aa(lp66
I1
aI2
aI3
aI4
aa(lp67
I0
aI1
aI2
aI3
aI4
aa.