(lp0
(lp1
(I3
I3
tp2
a(I4
I3
tp3
a(I5
I3
tp4
a(I6
I3
tp5
a(I7
I3
tp6
a(I3
I4
tp7
a(I4
I4
tp8
a(I5
I4
tp9
a(I6
I4
tp10
a(I3
I5
tp11
a(I4
I5
tp12
a(I5
I5
tp13
a(I3
I6
tp14
a(I4
I6
tp15
a(I5
I6
tp16
a(I4
I7
tp17
a(I5
I7
tp18
aa(lp19
(I3
I4
tp20
a(I4
I4
tp21
a(I5
I4
tp22
a(I6
I4
tp23
a(I7
I4
tp24
a(I3
I5
tp25
a(I4
I5
tp26
a(I5
I5
tp27
a(I6
I5
tp28
a(I3
I6
tp29
a(I4
I6
tp30
a(I5
I6
tp31
a(I3
I7
tp32
a(I4
I7
tp33
a(I5
I7
tp34
a(I4
I8
tp35
a(I5
I8
tp36
aa.