(lp0
I01
a(lp1
(I0
I0
tp2
a(I0
I1
tp3
a(I0
I2
tp4
a(I0
I3
tp5
a(I0
I4
tp6
a(I5
I2
tp7
a(I6
I2
tp8
a(I7
I2
tp9
a(I8
I2
tp10
a(I3
I4
tp11
a(I4
I4
tp12
a(I5
I4
tp13
a(I2
I7
tp14
a(I2
I8
tp15
a(I2
I9
tp16
a(I7
I8
tp17
a(I7
I9
tp18
aa(lp19
(I1
I8
tp20
a(I2
I8
tp21
a(I3
I8
tp22
a(I4
I8
tp23
a(I5
I8
tp24
a(I6
I6
tp25
a(I6
I7
tp26
a(I6
I8
tp27
a(I6
I9
tp28
a(I0
I4
tp29
a(I0
I5
tp30
a(I0
I6
tp31
a(I1
I1
tp32
a(I2
I1
tp33
a(I3
I1
tp34
a(I3
I2
tp35
a(I3
I3
tp36
aa(dp37
I0
(lp38
g2
ag3
ag4
ag5
ag6
asI3
(lp39
g14
ag15
ag16
asI4
(lp40
g17
ag18
asa(dp41
I1
(lp42
g25
ag26
ag27
ag28
asI2
(lp43
g29
ag30
ag31
asa(lp44
(I3
I1
tp45
a(I3
I2
tp46
a(I3
I3
tp47
a(I3
I4
tp48
a(I2
I3
tp49
a(I3
I0
tp50
a(I2
I1
tp51
a(I1
I1
tp52
a(I7
I1
tp53
a(I5
I4
tp54
a(I7
I6
tp55
a(I3
I7
tp56
a(I1
I8
tp57
a(I2
I8
tp58
a(I3
I8
tp59
a(I4
I8
tp60
a(I5
I8
tp61
a(I7
I8
tp62
a(I8
I3
tp63
aa(lp64
(I5
I5
tp65
a(I4
I4
tp66
a(I3
I4
tp67
a(I2
I4
tp68
a(I5
I4
tp69
a(I8
I6
tp70
a(I6
I3
tp71
a(I1
I0
tp72
a(I6
I7
tp73
a(I7
I2
tp74
a(I7
I1
tp75
a(I8
I2
tp76
a(I9
I2
tp77
a(I6
I2
tp78
a(I5
I2
tp79
a(I4
I8
tp80
aa(lp81
I1
aI2
aa(lp82
I0
aI3
aI4
aa(lp83
a(lp84
I7
aI2
aaI00
aI00
a(lp85
a(lp86
aI00
aI00
a(lp87
(lp88
I3
aI9
aI11
aI12
aI11
aI13
aI12
aI11
aI9
aI6
aa(lp89
I0
aI9
aI11
aI14
aI10
aI15
aI15
aI14
aI12
aI9
aa(lp90
I5
aI12
aI10
aI9
aI0
aI9
aI13
aI13
aI13
aI11
aa(lp91
I8
aI12
aI9
aI9
aI0
aI8
aI14
aI13
aI14
aI12
aa(lp92
I10
aI12
aI7
aI8
aI0
aI6
aI14
aI12
aI15
aI13
aa(lp93
I10
aI7
aI0
aI3
aI0
aI0
aI10
aI7
aI14
aI12
aa(lp94
I10
aI4
aI0
aI0
aI4
aI5
aI8
aI0
aI10
aI10
aa(lp95
I8
aI0
aI0
aI5
aI10
aI12
aI11
aI10
aI14
aI11
aa(lp96
I7
aI2
aI0
aI5
aI7
aI6
aI0
aI5
aI9
aI8
aa(lp97
I4
aI2
aI0
aI5
aI8
aI10
aI8
aI10
aI9
aI6
aaaI0
a.