(lp0
I01
a(lp1
(I0
I0
tp2
a(I0
I1
tp3
a(I0
I2
tp4
a(I0
I3
tp5
a(I0
I4
tp6
a(I5
I4
tp7
a(I5
I5
tp8
a(I5
I6
tp9
a(I5
I7
tp10
a(I5
I0
tp11
a(I6
I0
tp12
a(I7
I0
tp13
a(I2
I3
tp14
a(I2
I4
tp15
a(I2
I5
tp16
a(I7
I7
tp17
a(I7
I8
tp18
aa(lp19
(I1
I2
tp20
a(I1
I3
tp21
a(I1
I4
tp22
a(I1
I5
tp23
a(I1
I6
tp24
a(I9
I0
tp25
a(I9
I1
tp26
a(I9
I2
tp27
a(I9
I3
tp28
a(I2
I8
tp29
a(I3
I8
tp30
a(I4
I8
tp31
a(I6
I9
tp32
a(I7
I9
tp33
a(I8
I9
tp34
a(I2
I4
tp35
a(I2
I5
tp36
aa(dp37
I0
(lp38
g2
ag3
ag4
ag5
ag6
asI1
(lp39
g7
ag9
ag10
asI2
(lp40
g11
ag12
ag13
asI3
(lp41
g14
ag15
ag16
asI4
(lp42
g17
ag18
asa(dp43
I0
(lp44
g20
ag21
ag22
ag23
ag24
asI1
(lp45
g25
ag26
ag27
ag28
asI2
(lp46
g29
ag30
ag31
asI3
(lp47
g32
ag33
ag34
asI4
(lp48
g35
ag36
asa(lp49
(I0
I0
tp50
aa(lp51
(I5
I5
tp52
a(I4
I5
tp53
aa(lp54
I0
aI1
aI2
aI3
aI4
aa(lp55
I0
aI1
aI2
aI3
aI4
aa(lp56
(I6
I5
tp57
a(I5
I6
tp58
a(I5
I4
tp59
aa(lp60
I5
aI5
aaI00
aI00
a(lp61
a(lp62
aI00
aI00
a(lp63
(lp64
I10
aI15
aI19
aI21
aI22
aI22
aI21
aI19
aI15
aI10
aa(lp65
I15
aI20
aI24
aI26
aI27
aI26
aI26
aI24
aI20
aI15
aa(lp66
I19
aI24
aI28
aI30
aI31
aI28
aI30
aI28
aI24
aI19
aa(lp67
I21
aI26
aI30
aI32
aI33
aI26
aI32
aI30
aI26
aI21
aa(lp68
I22
aI27
aI31
aI33
aI34
aI22
aI33
aI31
aI27
aI22
aa(lp69
I22
aI26
aI28
aI26
aI22
aI0
aI21
aI24
aI24
aI21
aa(lp70
I21
aI26
aI30
aI32
aI33
aI21
aI32
aI30
aI26
aI21
aa(lp71
I19
aI24
aI28
aI30
aI31
aI24
aI30
aI28
aI24
aI19
aa(lp72
I15
aI20
aI24
aI26
aI27
aI24
aI26
aI24
aI20
aI15
aa(lp73
I10
aI15
aI19
aI21
aI22
aI21
aI21
aI19
aI15
aI10
aaaI1
a.