(lp0
I01
a(lp1
(I2
I4
tp2
a(I3
I4
tp3
a(I4
I4
tp4
a(I5
I4
tp5
a(I6
I4
tp6
a(I0
I0
tp7
a(I0
I1
tp8
a(I0
I2
tp9
a(I0
I3
tp10
a(I7
I1
tp11
a(I7
I2
tp12
a(I7
I3
tp13
a(I1
I7
tp14
a(I1
I8
tp15
a(I1
I9
tp16
a(I6
I7
tp17
a(I6
I8
tp18
aa(lp19
(I5
I3
tp20
a(I6
I3
tp21
a(I7
I3
tp22
a(I8
I3
tp23
a(I9
I3
tp24
a(I3
I1
tp25
a(I3
I2
tp26
a(I3
I3
tp27
a(I3
I4
tp28
a(I4
I5
tp29
a(I5
I5
tp30
a(I6
I5
tp31
a(I2
I3
tp32
a(I2
I4
tp33
a(I2
I5
tp34
a(I5
I0
tp35
a(I5
I1
tp36
aa(dp37
I0
(lp38
g2
ag3
ag4
ag5
ag6
asI1
(lp39
g7
ag8
ag9
ag10
asI2
(lp40
g11
ag12
ag13
asI3
(lp41
g14
ag15
ag16
asI4
(lp42
g17
ag18
asa(dp43
I0
(lp44
g20
ag21
ag22
ag23
ag24
asI2
(lp45
g29
ag30
ag31
asI3
(lp46
g32
ag33
ag34
asI4
(lp47
g35
ag36
asa(lp48
(I3
I1
tp49
a(I3
I2
tp50
a(I3
I3
tp51
a(I3
I4
tp52
a(I6
I4
tp53
aa(lp54
(I5
I5
tp55
aa(lp56
I0
aI2
aI3
aI4
aa(lp57
I0
aI1
aI2
aI3
aI4
aa(lp58
a(lp59
aI00
aI00
a(lp60
a(lp61
aI00
aI00
a(lp62
(lp63
I10
aI15
aI19
aI21
aI22
aI22
aI21
aI19
aI15
aI10
aa(lp64
I15
aI20
aI24
aI26
aI27
aI27
aI26
aI24
aI20
aI15
aa(lp65
I19
aI24
aI28
aI30
aI31
aI31
aI30
aI28
aI24
aI19
aa(lp66
I21
aI26
aI30
aI32
aI33
aI33
aI32
aI30
aI26
aI21
aa(lp67
I22
aI27
aI31
aI33
aI34
aI34
aI33
aI31
aI27
aI22
aa(lp68
I22
aI27
aI31
aI33
aI34
aI34
aI33
aI31
aI27
aI22
aa(lp69
I21
aI26
aI30
aI32
aI33
aI33
aI32
aI30
aI26
aI21
aa(lp70
I19
aI24
aI28
aI30
aI31
aI31
aI30
aI28
aI24
aI19
aa(lp71
I15
aI20
aI24
aI26
aI27
aI27
aI26
aI24
aI20
aI15
aa(lp72
I10
aI15
aI19
aI21
aI22
aI22
aI21
aI19
aI15
aI10
aaaI0
a.